target datalayout = "e-m:e-p270:32:32-p271:32:32-p272:64:64-i64:64-i128:128-f80:128-n8:16:32:64-S128"
target triple = "x86_64-pc-linux-gnu"

%struct.cpu_set_t = type { [16 x i64] }
%"class.std::error_code" = type { i32, ptr }

@.str = private unnamed_addr constant [32 x i8] c"pthread_setaffinity_np() failed\00", align 1
@_ZTISt12system_error = external constant ptr

; Function Attrs: mustprogress nounwind uwtable
define linkonce_odr hidden void @_ZNSt10error_codeC2EiRKNSt3_V214error_categoryE(ptr noundef nonnull align 8 dereferenceable(16) %0, i32 noundef %1, ptr noundef nonnull align 8 dereferenceable(8) %2) unnamed_addr #6 comdat align 2 {
  %4 = alloca ptr, align 8
  %5 = alloca i32, align 4
  %6 = alloca ptr, align 8
  store ptr %0, ptr %4, align 8, !tbaa !9
  store i32 %1, ptr %5, align 4, !tbaa !3
  store ptr %2, ptr %6, align 8, !tbaa !9
  %7 = load ptr, ptr %4, align 8
  %8 = getelementptr inbounds nuw %"class.std::error_code", ptr %7, i32 0, i32 0
  %9 = load i32, ptr %5, align 4, !tbaa !3
  store i32 %9, ptr %8, align 8, !tbaa !11
  %10 = getelementptr inbounds nuw %"class.std::error_code", ptr %7, i32 0, i32 1
  %11 = load ptr, ptr %6, align 8, !tbaa !9
  store ptr %11, ptr %10, align 8, !tbaa !13
  ret void
}

; Function Attrs: mustprogress uwtable
define void @_ZN5boost6fibers4numa10pin_threadEjm(i32 noundef %0, i64 noundef %1) #0 personality ptr @__gxx_personality_v0 {
  %3 = alloca i32, align 4
  %4 = alloca i64, align 8
  %5 = alloca %struct.cpu_set_t, align 8
  %6 = alloca i64, align 8
  %7 = alloca i64, align 8
  %8 = alloca i32, align 4
  %9 = alloca %"class.std::error_code", align 8
  %10 = alloca ptr, align 8
  %11 = alloca i32, align 4
  store i32 %0, ptr %3, align 4, !tbaa !3
  store i64 %1, ptr %4, align 8, !tbaa !7
  call void @llvm.lifetime.start.p0(i64 128, ptr %5) #14
  br label %12

12:                                               ; preds = %2
  call void @llvm.memset.p0.i64(ptr align 8 %5, i8 0, i64 128, i1 false)
  br label %13

13:                                               ; preds = %12
  br label %14

14:                                               ; preds = %13
  call void @llvm.lifetime.start.p0(i64 8, ptr %6) #14
  %15 = load i32, ptr %3, align 4, !tbaa !3
  %16 = zext i32 %15 to i64
  store i64 %16, ptr %6, align 8, !tbaa !7
  %17 = load i64, ptr %6, align 8, !tbaa !7
  %18 = udiv i64 %17, 8
  %19 = icmp ult i64 %18, 128
  br i1 %19, label %20, label %31

20:                                               ; preds = %14
  %21 = load i64, ptr %6, align 8, !tbaa !7
  %22 = urem i64 %21, 64
  %23 = shl i64 1, %22
  %24 = getelementptr inbounds nuw %struct.cpu_set_t, ptr %5, i32 0, i32 0
  %25 = getelementptr inbounds [16 x i64], ptr %24, i64 0, i64 0
  %26 = load i64, ptr %6, align 8, !tbaa !7
  %27 = udiv i64 %26, 64
  %28 = getelementptr inbounds nuw i64, ptr %25, i64 %27
  %29 = load i64, ptr %28, align 8, !tbaa !7
  %30 = or i64 %29, %23
  store i64 %30, ptr %28, align 8, !tbaa !7
  br label %32

31:                                               ; preds = %14
  br label %32

32:                                               ; preds = %31, %20
  %33 = phi i64 [ %30, %20 ], [ 0, %31 ]
  store i64 %33, ptr %7, align 8, !tbaa !7
  call void @llvm.lifetime.end.p0(i64 8, ptr %6) #14
  call void @llvm.lifetime.start.p0(i64 4, ptr %8) #14
  store i32 0, ptr %8, align 4, !tbaa !3
  %34 = load i64, ptr %4, align 8, !tbaa !7
  %35 = call i32 @pthread_setaffinity_np(i64 noundef %34, i64 noundef 128, ptr noundef %5) #14
  store i32 %35, ptr %8, align 4, !tbaa !3
  %36 = icmp ne i32 0, %35
  %37 = zext i1 %36 to i64
  %38 = call i64 @llvm.expect.i64(i64 %37, i64 0)
  %39 = icmp ne i64 %38, 0
  br i1 %39, label %40, label %53

40:                                               ; preds = %32
  %41 = call ptr @__cxa_allocate_exception(i64 32) #14
  %42 = load i32, ptr %8, align 4, !tbaa !3
  %43 = call noundef nonnull align 8 dereferenceable(8) ptr @_ZNSt3_V215system_categoryEv() #13
  call void @_ZNSt10error_codeC2EiRKNSt3_V214error_categoryE(ptr noundef nonnull align 8 dereferenceable(16) %9, i32 noundef %42, ptr noundef nonnull align 8 dereferenceable(8) %43) #14
  %44 = getelementptr inbounds nuw { i32, ptr }, ptr %9, i32 0, i32 0
  %45 = load i32, ptr %44, align 8
  %46 = getelementptr inbounds nuw { i32, ptr }, ptr %9, i32 0, i32 1
  %47 = load ptr, ptr %46, align 8
  invoke void @_ZNSt12system_errorC2ESt10error_codePKc(ptr noundef nonnull align 8 dereferenceable(32) %41, i32 %45, ptr %47, ptr noundef @.str)
          to label %48 unwind label %49

48:                                               ; preds = %40
  call void @__cxa_throw(ptr %41, ptr @_ZTISt12system_error, ptr @_ZNSt12system_errorD1Ev) #15
  unreachable

49:                                               ; preds = %40
  %50 = landingpad { ptr, i32 }
          cleanup
  %51 = extractvalue { ptr, i32 } %50, 0
  store ptr %51, ptr %10, align 8
  %52 = extractvalue { ptr, i32 } %50, 1
  store i32 %52, ptr %11, align 4
  call void @__cxa_free_exception(ptr %41) #14
  call void @llvm.lifetime.end.p0(i64 4, ptr %8) #14
  call void @llvm.lifetime.end.p0(i64 128, ptr %5) #14
  br label %54

53:                                               ; preds = %32
  call void @llvm.lifetime.end.p0(i64 4, ptr %8) #14
  call void @llvm.lifetime.end.p0(i64 128, ptr %5) #14
  ret void

54:                                               ; preds = %49
  %55 = load ptr, ptr %10, align 8
  %56 = load i32, ptr %11, align 4
  %57 = insertvalue { ptr, i32 } poison, ptr %55, 0
  %58 = insertvalue { ptr, i32 } %57, i32 %56, 1
  resume { ptr, i32 } %58
}