; Function Attrs: mustprogress uwtable
define void @_ZN5boost6fibers4numa10pin_threadEjm(i32 noundef %0, i64 noundef %1) local_unnamed_addr #0 personality ptr @__gxx_personality_v0 {
  %3 = alloca %struct.cpu_set_t, align 8
  call void @llvm.lifetime.start.p0(i64 128, ptr nonnull %3) #13
  call void @llvm.memset.p0.i64(ptr noundef nonnull align 8 dereferenceable(128) %3, i8 0, i64 128, i1 false)
  %4 = icmp ult i32 %0, 1024
  br i1 %4, label %5, label %13

5:                                                ; preds = %2
  %6 = zext nneg i32 %0 to i64
  %7 = and i64 %6, 63
  %8 = shl nuw i64 1, %7
  %9 = lshr i64 %6, 6
  %10 = getelementptr inbounds nuw i64, ptr %3, i64 %9
  %11 = load i64, ptr %10, align 8, !tbaa !3
  %12 = or i64 %11, %8
  store i64 %12, ptr %10, align 8, !tbaa !3
  br label %13

13:                                               ; preds = %2, %5
  %14 = call i32 @pthread_setaffinity_np(i64 noundef %1, i64 noundef 128, ptr noundef nonnull %3) #13
  %.not = icmp eq i32 %14, 0
  br i1 %.not, label %21, label %15, !prof !7

15:                                               ; preds = %13
  %16 = call ptr @__cxa_allocate_exception(i64 32) #13
  %17 = tail call noundef nonnull align 8 dereferenceable(8) ptr @_ZNSt3_V215system_categoryEv() #12
  invoke void @_ZNSt12system_errorC2ESt10error_codePKc(ptr noundef nonnull align 8 dereferenceable(32) %16, i32 %14, ptr nonnull %17, ptr noundef nonnull @.str)
          to label %18 unwind label %19

18:                                               ; preds = %15
  call void @__cxa_throw(ptr nonnull %16, ptr nonnull @_ZTISt12system_error, ptr nonnull @_ZNSt12system_errorD1Ev) #14
  unreachable

19:                                               ; preds = %15
  %20 = landingpad { ptr, i32 }
          cleanup
  call void @__cxa_free_exception(ptr %16) #13
  call void @llvm.lifetime.end.p0(i64 128, ptr nonnull %3) #13
  resume { ptr, i32 } %20

21:                                               ; preds = %13
  call void @llvm.lifetime.end.p0(i64 128, ptr nonnull %3) #13
  ret void
}